; Function Attrs: mustprogress uwtable
define void @_ZN11OpenImageIO6v3_1_012ImageBufAlgo12unsharp_maskERKNS0_8ImageBufENS0_17basic_string_viewIcSt11char_traitsIcEEEfffNS0_3ROIEi(ptr dead_on_unwind noalias nonnull writable sret(%"class.OpenImageIO::v3_1_0::ImageBuf") align 8 %0, ptr noundef nonnull align 8 dereferenceable(16) %1, ptr noundef readonly captures(none) %2, float noundef %3, float noundef %4, float noundef %5, ptr noundef readonly byval(%"struct.OpenImageIO::v3_1_0::ROI") align 8 captures(none) %6, i32 noundef %7) local_unnamed_addr #5 personality ptr @__gxx_personality_v0 {
  %9 = alloca %"class.OpenImageIO::v3_1_0::basic_string_view", align 8
  tail call void @_ZN11OpenImageIO6v3_1_08ImageBufC1Ev(ptr noundef nonnull align 8 dereferenceable(16) %0)
  %10 = load ptr, ptr %2, align 8, !tbaa !88
  store ptr %10, ptr %9, align 8, !tbaa !88
  %11 = getelementptr inbounds nuw i8, ptr %9, i64 8
  %12 = getelementptr inbounds nuw i8, ptr %2, i64 8
  %13 = load i64, ptr %12, align 8, !tbaa !90
  store i64 %13, ptr %11, align 8, !tbaa !90
  %14 = invoke noundef zeroext i1 @_ZN11OpenImageIO6v3_1_012ImageBufAlgo12unsharp_maskERNS0_8ImageBufERKS2_NS0_17basic_string_viewIcSt11char_traitsIcEEEfffNS0_3ROIEi(ptr noundef nonnull align 8 dereferenceable(16) %0, ptr noundef nonnull align 8 dereferenceable(16) %1, ptr noundef nonnull %9, float noundef %3, float noundef %4, float noundef %5, ptr noundef nonnull byval(%"struct.OpenImageIO::v3_1_0::ROI") align 8 %6, i32 noundef %7)
          to label %15 unwind label %20

15:                                               ; preds = %8
  br i1 %14, label %22, label %16

16:                                               ; preds = %15
  %17 = invoke noundef zeroext i1 @_ZNK11OpenImageIO6v3_1_08ImageBuf9has_errorEv(ptr noundef nonnull align 8 dereferenceable(16) %0)
          to label %18 unwind label %20

18:                                               ; preds = %16
  br i1 %17, label %22, label %19

19:                                               ; preds = %18
  invoke void @_ZNK11OpenImageIO6v3_1_08ImageBuf8errorfmtIA35_cJEEEvRKT_DpOT0_(ptr noundef nonnull align 8 dereferenceable(16) %0, ptr noundef nonnull align 1 dereferenceable(35) @.str.44)
          to label %22 unwind label %20

20:                                               ; preds = %19, %16, %8
  %21 = landingpad { ptr, i32 }
          cleanup
  tail call void @_ZN11OpenImageIO6v3_1_08ImageBufD1Ev(ptr noundef nonnull align 8 dereferenceable(16) %0) #28
  resume { ptr, i32 } %21

22:                                               ; preds = %15, %18, %19
  ret void
}